target datalayout = "e-m:e-p270:32:32-p271:32:32-p272:64:64-i64:64-i128:128-f80:128-n8:16:32:64-S128"
target triple = "x86_64-pc-linux-gnu"

%struct._stat_tap_table_item_type = type { i32, %union.anon, %union.anon.0 }
%union.anon = type { ptr }
%union.anon.0 = type { ptr }

; Function Attrs: null_pointer_is_valid sspstrong uwtable
define internal void @rpc_prog_stat_free_table_item(ptr noundef %0, i32 noundef %1, i32 noundef %2, ptr noundef %3) #0 {
  %5 = alloca ptr, align 8
  %6 = alloca i32, align 4
  %7 = alloca i32, align 4
  %8 = alloca ptr, align 8
  store ptr %0, ptr %5, align 8
  store i32 %1, ptr %6, align 4
  store i32 %2, ptr %7, align 4
  store ptr %3, ptr %8, align 8
  %9 = load i32, ptr %7, align 4
  %10 = icmp ne i32 %9, 0
  br i1 %10, label %11, label %12

11:                                               ; preds = %4
  br label %16

12:                                               ; preds = %4
  %13 = load ptr, ptr %8, align 8
  %14 = getelementptr inbounds nuw %struct._stat_tap_table_item_type, ptr %13, i32 0, i32 1
  %15 = load ptr, ptr %14, align 8
  call void @g_free(ptr noundef %15)
  br label %16

16:                                               ; preds = %12, %11
  ret void
}