; Function Attrs: null_pointer_is_valid sspstrong uwtable
define internal void @rpc_prog_stat_free_table_item(ptr readnone captures(none) %0, i32 %1, i32 noundef %2, ptr noundef readonly captures(none) %3) #0 {
  %.not = icmp eq i32 %2, 0
  br i1 %.not, label %5, label %8

5:                                                ; preds = %4
  %6 = getelementptr inbounds nuw i8, ptr %3, i64 8
  %7 = load ptr, ptr %6, align 8
  tail call void @g_free(ptr noundef %7)
  br label %8

8:                                                ; preds = %4, %5
  ret void
}